target datalayout = "e-m:e-p270:32:32-p271:32:32-p272:64:64-i64:64-i128:128-f80:128-n8:16:32:64-S128"
target triple = "x86_64-pc-linux-gnu"

%struct.dasm_State = type { i64, ptr, ptr, i64, ptr, i64, ptr, ptr, i64, i32, i32, [1 x %struct.dasm_Section] }
%struct.dasm_Section = type { ptr, ptr, i64, i32, i32, i32 }

; Function Attrs: nounwind uwtable
define hidden i32 @dasm_getpclabel(ptr noundef %0, i32 noundef %1) #0 {
  %3 = alloca i32, align 4
  %4 = alloca ptr, align 8
  %5 = alloca i32, align 4
  %6 = alloca ptr, align 8
  %7 = alloca i32, align 4
  store ptr %0, ptr %4, align 8
  store i32 %1, ptr %5, align 4
  %8 = load ptr, ptr %4, align 8
  %9 = load ptr, ptr %8, align 8
  store ptr %9, ptr %6, align 8
  %10 = load i32, ptr %5, align 4
  %11 = zext i32 %10 to i64
  %12 = mul i64 %11, 4
  %13 = load ptr, ptr %6, align 8
  %14 = getelementptr inbounds %struct.dasm_State, ptr %13, i32 0, i32 5
  %15 = load i64, ptr %14, align 8
  %16 = icmp ult i64 %12, %15
  br i1 %16, label %17, label %47

17:                                               ; preds = %2
  %18 = load ptr, ptr %6, align 8
  %19 = getelementptr inbounds %struct.dasm_State, ptr %18, i32 0, i32 4
  %20 = load ptr, ptr %19, align 8
  %21 = load i32, ptr %5, align 4
  %22 = zext i32 %21 to i64
  %23 = getelementptr inbounds i32, ptr %20, i64 %22
  %24 = load i32, ptr %23, align 4
  store i32 %24, ptr %7, align 4
  %25 = load i32, ptr %7, align 4
  %26 = icmp slt i32 %25, 0
  br i1 %26, label %27, label %42

27:                                               ; preds = %17
  %28 = load ptr, ptr %6, align 8
  %29 = getelementptr inbounds %struct.dasm_State, ptr %28, i32 0, i32 11
  %30 = load i32, ptr %7, align 4
  %31 = sub nsw i32 0, %30
  %32 = ashr i32 %31, 24
  %33 = sext i32 %32 to i64
  %34 = getelementptr inbounds [1 x %struct.dasm_Section], ptr %29, i64 0, i64 %33
  %35 = getelementptr inbounds %struct.dasm_Section, ptr %34, i32 0, i32 0
  %36 = load ptr, ptr %35, align 8
  %37 = load i32, ptr %7, align 4
  %38 = sub nsw i32 0, %37
  %39 = sext i32 %38 to i64
  %40 = getelementptr inbounds i32, ptr %36, i64 %39
  %41 = load i32, ptr %40, align 4
  store i32 %41, ptr %3, align 4
  br label %48

42:                                               ; preds = %17
  %43 = load i32, ptr %7, align 4
  %44 = icmp sgt i32 %43, 0
  br i1 %44, label %45, label %46

45:                                               ; preds = %42
  store i32 -1, ptr %3, align 4
  br label %48

46:                                               ; preds = %42
  br label %47

47:                                               ; preds = %46, %2
  store i32 -2, ptr %3, align 4
  br label %48

48:                                               ; preds = %47, %45, %27
  %49 = load i32, ptr %3, align 4
  ret i32 %49
}