; Function Attrs: mustprogress nofree norecurse nosync nounwind willreturn memory(read, inaccessiblemem: none) uwtable
define hidden i32 @dasm_getpclabel(ptr nocapture noundef readonly %0, i32 noundef %1) local_unnamed_addr #8 {
  %3 = load ptr, ptr %0, align 8
  %4 = zext i32 %1 to i64
  %5 = shl nuw nsw i64 %4, 2
  %6 = getelementptr inbounds i8, ptr %3, i64 40
  %7 = load i64, ptr %6, align 8
  %8 = icmp ult i64 %5, %7
  br i1 %8, label %9, label %26

9:                                                ; preds = %2
  %10 = getelementptr inbounds i8, ptr %3, i64 32
  %11 = load ptr, ptr %10, align 8
  %12 = getelementptr inbounds i32, ptr %11, i64 %4
  %13 = load i32, ptr %12, align 4
  %14 = icmp slt i32 %13, 0
  br i1 %14, label %15, label %25

15:                                               ; preds = %9
  %16 = getelementptr inbounds i8, ptr %3, i64 80
  %17 = sub nsw i32 0, %13
  %18 = lshr i32 %17, 24
  %19 = zext nneg i32 %18 to i64
  %20 = getelementptr inbounds [1 x %struct.dasm_Section], ptr %16, i64 0, i64 %19
  %21 = load ptr, ptr %20, align 8
  %22 = zext nneg i32 %17 to i64
  %23 = getelementptr inbounds i32, ptr %21, i64 %22
  %24 = load i32, ptr %23, align 4
  br label %27

25:                                               ; preds = %9
  %.not = icmp eq i32 %13, 0
  br i1 %.not, label %26, label %27

26:                                               ; preds = %25, %2
  br label %27

27:                                               ; preds = %25, %26, %15
  %.0 = phi i32 [ %24, %15 ], [ -2, %26 ], [ -1, %25 ]
  ret i32 %.0
}